target datalayout = "e-m:e-p270:32:32-p271:32:32-p272:64:64-i64:64-i128:128-f80:128-n8:16:32:64-S128"
target triple = "x86_64-pc-linux-gnu"

%struct.SwsInternal = type { %struct.SwsContext, ptr, ptr, ptr, ptr, i32, [2 x ptr], i32, i32, ptr, i32, i32, i32, i32, i32, i32, i32, i32, i32, i32, i32, i32, i32, i32, i32, i32, i32, i32, ptr, ptr, %struct.RangeList, [3 x ptr], [2 x [4 x i32]], [2 x [4 x ptr]], i32, double, i32, ptr, ptr, i32, [2 x i32], i32, ptr, ptr, [256 x i32], [256 x i32], [256 x float], i32, i32, ptr, i32, ptr, ptr, ptr, ptr, ptr, ptr, ptr, ptr, i32, i32, i32, i32, i32, i32, ptr, ptr, i32, i32, i32, ptr, [8 x i8], [1280 x i32], [1280 x ptr], [1280 x ptr], [1280 x ptr], [176 x i32], [4 x ptr], i32, i32, i32, [4 x i32], [4 x i32], i32, i32, i32, i32, i32, i32, i32, i32, i32, i32, i64, i64, i64, i64, i64, i64, i64, i64, i64, i64, i64, [1024 x i32], [1024 x i32], i32, i64, i64, i64, i64, i64, [1024 x i32], i64, i64, [8 x i16], [8 x i32], ptr, ptr, i32, ptr, ptr, ptr, ptr, [3 x [4 x i16]], [3 x [4 x i16]], ptr, ptr, ptr, ptr, ptr, ptr, ptr, ptr, ptr, ptr, ptr, ptr, ptr, ptr, ptr, ptr, ptr, ptr, ptr, ptr, i32, i32, i64, i64, i32, ptr, i32, ptr, i32, i32, i32, i32, i32, ptr }
%struct.SwsContext = type { ptr, ptr, i32, [2 x double], i32, i32, i32, i32, i32, i32, i32, i32, i32, i32, i32, i32, i32, i32, i32, i32, i32 }
%struct.RangeList = type { ptr, i32, i32 }

; Function Attrs: alwaysinline nounwind willreturn memory(none) uwtable
define internal zeroext i8 @av_clip_uint8_c(i32 noundef %0) #7 {
  %2 = alloca i8, align 1
  %3 = alloca i32, align 4
  store i32 %0, ptr %3, align 4, !tbaa !9
  %4 = load i32, ptr %3, align 4, !tbaa !9
  %5 = and i32 %4, -256
  %6 = icmp ne i32 %5, 0
  br i1 %6, label %7, label %12

7:                                                ; preds = %1
  %8 = load i32, ptr %3, align 4, !tbaa !9
  %9 = xor i32 %8, -1
  %10 = ashr i32 %9, 31
  %11 = trunc i32 %10 to i8
  store i8 %11, ptr %2, align 1
  br label %15

12:                                               ; preds = %1
  %13 = load i32, ptr %3, align 4, !tbaa !9
  %14 = trunc i32 %13 to i8
  store i8 %14, ptr %2, align 1
  br label %15

15:                                               ; preds = %12, %7
  %16 = load i8, ptr %2, align 1
  ret i8 %16
}

; Function Attrs: nounwind uwtable
define internal i32 @float_y_to_uint_y_wrapper(ptr noundef %0, ptr noundef %1, ptr noundef %2, i32 noundef %3, i32 noundef %4, ptr noundef %5, ptr noundef %6) #0 {
  %8 = alloca ptr, align 8
  %9 = alloca ptr, align 8
  %10 = alloca ptr, align 8
  %11 = alloca i32, align 4
  %12 = alloca i32, align 4
  %13 = alloca ptr, align 8
  %14 = alloca ptr, align 8
  %15 = alloca i32, align 4
  %16 = alloca i32, align 4
  %17 = alloca i64, align 8
  %18 = alloca ptr, align 8
  %19 = alloca ptr, align 8
  store ptr %0, ptr %8, align 8, !tbaa !13
  store ptr %1, ptr %9, align 8, !tbaa !52
  store ptr %2, ptr %10, align 8, !tbaa !54
  store i32 %3, ptr %11, align 4, !tbaa !9
  store i32 %4, ptr %12, align 4, !tbaa !9
  store ptr %5, ptr %13, align 8, !tbaa !52
  store ptr %6, ptr %14, align 8, !tbaa !54
  call void @llvm.lifetime.start.p0(i64 4, ptr %15) #11
  call void @llvm.lifetime.start.p0(i64 4, ptr %16) #11
  call void @llvm.lifetime.start.p0(i64 8, ptr %17) #11
  %20 = load ptr, ptr %10, align 8, !tbaa !54
  %21 = getelementptr inbounds i32, ptr %20, i64 0
  %22 = load i32, ptr %21, align 4, !tbaa !9
  %23 = ashr i32 %22, 2
  %24 = sext i32 %23 to i64
  store i64 %24, ptr %17, align 8, !tbaa !92
  call void @llvm.lifetime.start.p0(i64 8, ptr %18) #11
  %25 = load ptr, ptr %9, align 8, !tbaa !52
  %26 = getelementptr inbounds ptr, ptr %25, i64 0
  %27 = load ptr, ptr %26, align 8, !tbaa !4
  store ptr %27, ptr %18, align 8, !tbaa !93
  call void @llvm.lifetime.start.p0(i64 8, ptr %19) #11
  %28 = load ptr, ptr %13, align 8, !tbaa !52
  %29 = getelementptr inbounds ptr, ptr %28, i64 0
  %30 = load ptr, ptr %29, align 8, !tbaa !4
  %31 = load ptr, ptr %14, align 8, !tbaa !54
  %32 = getelementptr inbounds i32, ptr %31, i64 0
  %33 = load i32, ptr %32, align 4, !tbaa !9
  %34 = load i32, ptr %11, align 4, !tbaa !9
  %35 = mul nsw i32 %33, %34
  %36 = sext i32 %35 to i64
  %37 = getelementptr inbounds i8, ptr %30, i64 %36
  store ptr %37, ptr %19, align 8, !tbaa !4
  store i32 0, ptr %15, align 4, !tbaa !9
  br label %38

38:                                               ; preds = %77, %7
  %39 = load i32, ptr %15, align 4, !tbaa !9
  %40 = load i32, ptr %12, align 4, !tbaa !9
  %41 = icmp slt i32 %39, %40
  br i1 %41, label %42, label %80

42:                                               ; preds = %38
  store i32 0, ptr %16, align 4, !tbaa !9
  br label %43

43:                                               ; preds = %64, %42
  %44 = load i32, ptr %16, align 4, !tbaa !9
  %45 = load ptr, ptr %8, align 8, !tbaa !13
  %46 = getelementptr inbounds nuw %struct.SwsInternal, ptr %45, i32 0, i32 0
  %47 = getelementptr inbounds nuw %struct.SwsContext, ptr %46, i32 0, i32 8
  %48 = load i32, ptr %47, align 8, !tbaa !55
  %49 = icmp slt i32 %44, %48
  br i1 %49, label %50, label %67

50:                                               ; preds = %43
  %51 = load ptr, ptr %18, align 8, !tbaa !93
  %52 = load i32, ptr %16, align 4, !tbaa !9
  %53 = sext i32 %52 to i64
  %54 = getelementptr inbounds float, ptr %51, i64 %53
  %55 = load float, ptr %54, align 4, !tbaa !95
  %56 = fmul nsz float 2.550000e+02, %55
  %57 = call i64 @llvm.lrint.i64.f32(float %56)
  %58 = trunc i64 %57 to i32
  %59 = call zeroext i8 @av_clip_uint8_c(i32 noundef %58) #13
  %60 = load ptr, ptr %19, align 8, !tbaa !4
  %61 = load i32, ptr %16, align 4, !tbaa !9
  %62 = sext i32 %61 to i64
  %63 = getelementptr inbounds i8, ptr %60, i64 %62
  store i8 %59, ptr %63, align 1, !tbaa !67
  br label %64

64:                                               ; preds = %50
  %65 = load i32, ptr %16, align 4, !tbaa !9
  %66 = add nsw i32 %65, 1
  store i32 %66, ptr %16, align 4, !tbaa !9
  br label %43, !llvm.loop !99

67:                                               ; preds = %43
  %68 = load i64, ptr %17, align 8, !tbaa !92
  %69 = load ptr, ptr %18, align 8, !tbaa !93
  %70 = getelementptr inbounds float, ptr %69, i64 %68
  store ptr %70, ptr %18, align 8, !tbaa !93
  %71 = load ptr, ptr %14, align 8, !tbaa !54
  %72 = getelementptr inbounds i32, ptr %71, i64 0
  %73 = load i32, ptr %72, align 4, !tbaa !9
  %74 = load ptr, ptr %19, align 8, !tbaa !4
  %75 = sext i32 %73 to i64
  %76 = getelementptr inbounds i8, ptr %74, i64 %75
  store ptr %76, ptr %19, align 8, !tbaa !4
  br label %77

77:                                               ; preds = %67
  %78 = load i32, ptr %15, align 4, !tbaa !9
  %79 = add nsw i32 %78, 1
  store i32 %79, ptr %15, align 4, !tbaa !9
  br label %38, !llvm.loop !100

80:                                               ; preds = %38
  %81 = load i32, ptr %12, align 4, !tbaa !9
  call void @llvm.lifetime.end.p0(i64 8, ptr %19) #11
  call void @llvm.lifetime.end.p0(i64 8, ptr %18) #11
  call void @llvm.lifetime.end.p0(i64 8, ptr %17) #11
  call void @llvm.lifetime.end.p0(i64 4, ptr %16) #11
  call void @llvm.lifetime.end.p0(i64 4, ptr %15) #11
  ret i32 %81
}