; Function Attrs: nofree norecurse nosync nounwind memory(readwrite, inaccessiblemem: none) uwtable
define internal noundef i32 @float_y_to_uint_y_wrapper(ptr noundef readonly captures(none) %0, ptr noundef readonly captures(none) %1, ptr noundef readonly captures(none) %2, i32 noundef %3, i32 noundef returned %4, ptr noundef readonly captures(none) %5, ptr noundef readonly captures(none) %6) #6 {
  %8 = load i32, ptr %2, align 4, !tbaa !48
  %9 = ashr i32 %8, 2
  %10 = sext i32 %9 to i64
  %11 = icmp sgt i32 %4, 0
  br i1 %11, label %.preheader.lr.ph, label %._crit_edge27

.preheader.lr.ph:                                 ; preds = %7
  %12 = getelementptr inbounds nuw i8, ptr %0, i64 56
  %13 = load i32, ptr %12, align 8, !tbaa !50
  %14 = icmp sgt i32 %13, 0
  br i1 %14, label %.preheader.preheader, label %._crit_edge27

.preheader.preheader:                             ; preds = %.preheader.lr.ph
  %15 = load ptr, ptr %5, align 8, !tbaa !49
  %16 = load i32, ptr %6, align 4, !tbaa !48
  %17 = mul nsw i32 %16, %3
  %18 = sext i32 %17 to i64
  %19 = getelementptr inbounds i8, ptr %15, i64 %18
  %20 = load ptr, ptr %1, align 8, !tbaa !49
  br label %.preheader

.preheader:                                       ; preds = %.preheader.preheader, %._crit_edge
  %21 = phi i32 [ %35, %._crit_edge ], [ %16, %.preheader.preheader ]
  %22 = phi i32 [ %36, %._crit_edge ], [ %13, %.preheader.preheader ]
  %.026 = phi ptr [ %39, %._crit_edge ], [ %19, %.preheader.preheader ]
  %.01925 = phi ptr [ %37, %._crit_edge ], [ %20, %.preheader.preheader ]
  %.02024 = phi i32 [ %40, %._crit_edge ], [ 0, %.preheader.preheader ]
  %23 = icmp sgt i32 %22, 0
  br i1 %23, label %.lr.ph, label %._crit_edge

.lr.ph:                                           ; preds = %.preheader, %.lr.ph
  %indvars.iv = phi i64 [ %indvars.iv.next, %.lr.ph ], [ 0, %.preheader ]
  %24 = getelementptr inbounds nuw float, ptr %.01925, i64 %indvars.iv
  %25 = load float, ptr %24, align 4, !tbaa !96
  %26 = fmul nsz float %25, 2.550000e+02
  %27 = tail call i64 @llvm.lrint.i64.f32(float %26)
  %28 = trunc i64 %27 to i32
  %.not.i = icmp ult i32 %28, 256
  %isnotneg.i = icmp sgt i32 %28, -1
  %29 = sext i1 %isnotneg.i to i8
  %30 = trunc i64 %27 to i8
  %.0.i = select i1 %.not.i, i8 %30, i8 %29
  %31 = getelementptr inbounds nuw i8, ptr %.026, i64 %indvars.iv
  store i8 %.0.i, ptr %31, align 1, !tbaa !61
  %indvars.iv.next = add nuw nsw i64 %indvars.iv, 1
  %32 = load i32, ptr %12, align 8, !tbaa !50
  %33 = sext i32 %32 to i64
  %34 = icmp slt i64 %indvars.iv.next, %33
  br i1 %34, label %.lr.ph, label %._crit_edge.loopexit, !llvm.loop !100

._crit_edge.loopexit:                             ; preds = %.lr.ph
  %.pre = load i32, ptr %6, align 4, !tbaa !48
  br label %._crit_edge

._crit_edge:                                      ; preds = %._crit_edge.loopexit, %.preheader
  %35 = phi i32 [ %.pre, %._crit_edge.loopexit ], [ %21, %.preheader ]
  %36 = phi i32 [ %32, %._crit_edge.loopexit ], [ %22, %.preheader ]
  %37 = getelementptr inbounds float, ptr %.01925, i64 %10
  %38 = sext i32 %35 to i64
  %39 = getelementptr inbounds i8, ptr %.026, i64 %38
  %40 = add nuw nsw i32 %.02024, 1
  %exitcond.not = icmp eq i32 %40, %4
  br i1 %exitcond.not, label %._crit_edge27, label %.preheader, !llvm.loop !101

._crit_edge27:                                    ; preds = %._crit_edge, %.preheader.lr.ph, %7
  ret i32 %4
}